; Function Attrs: nounwind uwtable
define dso_local void @lua_replace(ptr noundef %0, i32 noundef %1) local_unnamed_addr #1 {
  %3 = getelementptr inbounds nuw i8, ptr %0, i64 40
  %4 = load ptr, ptr %3, align 8, !tbaa !14
  %5 = getelementptr inbounds i8, ptr %4, i64 -8
  tail call fastcc void @copy_slot(ptr noundef %0, ptr noundef nonnull %5, i32 noundef %1)
  %6 = load ptr, ptr %3, align 8, !tbaa !14
  %7 = getelementptr inbounds i8, ptr %6, i64 -8
  store ptr %7, ptr %3, align 8, !tbaa !14
  ret void
}